; Function Attrs: mustprogress nounwind uwtable
define internal fastcc void @_ZL15call_initPhase2P10JavaThread(ptr noundef %0) unnamed_addr #0 {
  %2 = alloca %class.TraceTime, align 8
  %3 = alloca %class.JavaValue, align 8
  %4 = alloca %class.JavaCallArguments, align 8
  %5 = load volatile ptr, ptr getelementptr inbounds (i8, ptr @_ZN16LogTagSetMappingILN6LogTag4typeE144ELS1_0ELS1_0ELS1_0ELS1_0ELS1_0EE7_tagsetE, i64 64), align 8
  %.not3 = icmp eq ptr %5, null
  %6 = select i1 %.not3, ptr null, ptr @_ZN7LogImplILN6LogTag4typeE144ELS1_0ELS1_0ELS1_0ELS1_0ELS1_0EE5writeILN8LogLevel4typeE3EEEvPKcz
  call void @_ZN9TraceTimeC1EPKcPFvS1_zE(ptr noundef nonnull align 8 dereferenceable(56) %2, ptr noundef nonnull @.str.41, ptr noundef %6) #15
  %7 = load ptr, ptr getelementptr inbounds (i8, ptr @_ZN9vmClasses8_klassesE, i64 48), align 8
  store i8 10, ptr %3, align 8
  %8 = getelementptr inbounds i8, ptr %4, i64 120
  store ptr null, ptr %8, align 8
  %9 = getelementptr inbounds i8, ptr %4, i64 8
  %10 = getelementptr inbounds i8, ptr %4, i64 88
  store ptr %9, ptr %10, align 8
  %11 = getelementptr inbounds i8, ptr %4, i64 73
  %12 = getelementptr inbounds i8, ptr %4, i64 96
  store ptr %11, ptr %12, align 8
  %13 = getelementptr inbounds i8, ptr %4, i64 108
  store i32 8, ptr %13, align 4
  %14 = getelementptr inbounds i8, ptr %4, i64 104
  %15 = getelementptr inbounds i8, ptr %4, i64 112
  store i8 0, ptr %15, align 8
  %16 = load i8, ptr @DisplayVMOutputToStderr, align 1
  %17 = and i8 %16, 1
  %18 = zext nneg i8 %17 to i32
  store i8 0, ptr %11, align 1
  store i32 %18, ptr %9, align 8
  %19 = load volatile ptr, ptr getelementptr inbounds (i8, ptr @_ZN16LogTagSetMappingILN6LogTag4typeE58ELS1_0ELS1_0ELS1_0ELS1_0ELS1_0EE7_tagsetE, i64 56), align 8
  %20 = icmp ne ptr %19, null
  %21 = zext i1 %20 to i32
  %22 = getelementptr inbounds i8, ptr %4, i64 74
  store i8 0, ptr %22, align 2
  store i32 2, ptr %14, align 8
  %23 = getelementptr inbounds i8, ptr %4, i64 16
  store i32 %21, ptr %23, align 8
  %24 = load ptr, ptr getelementptr inbounds (i8, ptr @_ZN6Symbol11_vm_symbolsE, i64 808), align 8
  %25 = load ptr, ptr getelementptr inbounds (i8, ptr @_ZN6Symbol11_vm_symbolsE, i64 7592), align 8
  call void @_ZN9JavaCalls11call_staticEP9JavaValueP5KlassP6SymbolS5_P17JavaCallArgumentsP10JavaThread(ptr noundef nonnull %3, ptr noundef %7, ptr noundef %24, ptr noundef %25, ptr noundef nonnull %4, ptr noundef %0) #15
  %26 = getelementptr inbounds i8, ptr %0, i64 8
  %27 = load ptr, ptr %26, align 8
  %.not4 = icmp eq ptr %27, null
  br i1 %.not4, label %28, label %33

28:                                               ; preds = %1
  %29 = getelementptr inbounds i8, ptr %3, i64 8
  %30 = load i32, ptr %29, align 8
  %.not = icmp eq i32 %30, 0
  br i1 %.not, label %32, label %31

31:                                               ; preds = %28
  call void @_Z29vm_exit_during_initializationv() #15
  br label %32

32:                                               ; preds = %31, %28
  call void @_Z25universe_post_module_initv() #15
  br label %33

33:                                               ; preds = %1, %32
  call void @_ZN9TraceTimeD1Ev(ptr noundef nonnull align 8 dereferenceable(56) %2) #15
  ret void
}